target datalayout = "e-m:e-p270:32:32-p271:32:32-p272:64:64-i64:64-i128:128-f80:128-n8:16:32:64-S128"
target triple = "x86_64-pc-linux-gnu"

%struct.H5HF_hdr_t = type { %struct.H5C_cache_entry_t, i32, i32, i8, i8, i8, i8, %struct.H5HF_dtable_t, i64, i64, i32, i64, i64, %struct.H5O_pline_t, i64, i32, i64, i64, i64, i64, i64, i64, i64, i64, i64, i64, i64, i32, ptr, i64, i8, i8, i8, ptr, i32, ptr, %struct.H5HF_block_iter_t, ptr, i64, i8, i8, i64, i8, i8, i8, i8 }
%struct.H5C_cache_entry_t = type { ptr, i64, i64, ptr, i8, ptr, i8, i8, i8, i8, i32, i8, i8, i8, i8, i8, i32, ptr, i32, i32, i32, i32, i32, i8, i8, ptr, ptr, ptr, ptr, ptr, ptr, i8, i32, i8, i64, ptr, i64, i64, i32, i8, i32, i32, i8, ptr, ptr, ptr }
%struct.H5HF_dtable_t = type { %struct.H5HF_dtable_cparam_t, i64, i32, i32, i32, i32, i32, i32, i32, i64, ptr, ptr, ptr, ptr }
%struct.H5HF_dtable_cparam_t = type { i32, i64, i64, i32, i32 }
%struct.H5O_pline_t = type { %struct.H5O_shared_t, i32, i64, i64, ptr }
%struct.H5O_shared_t = type { i32, ptr, i32, %union.anon }
%union.anon = type { %struct.H5O_mesg_loc_t }
%struct.H5O_mesg_loc_t = type { i32, i64 }
%struct.H5HF_block_iter_t = type { i8, ptr }

@H5HF_init_g = external global i8, align 1
@H5_libterm_g = external global i8, align 1
@.str = private unnamed_addr constant [101 x i8] c"generated/home/dtcxzyw/WorkSpace/Projects/compilers/llvm-opt-benchmark/bench/hdf5/hdf5/src/H5HFhdr.c\00", align 1
@H5E_HEAP_g = external global i64, align 8
@H5E_CANTINIT_g = external global i64, align 8
@H5E_CANTRELEASE_g = external global i64, align 8
@__func__.H5HF__hdr_skip_blocks = private unnamed_addr constant [22 x i8] c"H5HF__hdr_skip_blocks\00", align 1
@.str.30 = private unnamed_addr constant [35 x i8] c"can't increase allocated heap size\00", align 1
@.str.31 = private unnamed_addr constant [62 x i8] c"can't create indirect section for indirect block's free space\00", align 1
@H5E_CANTNEXT_g = external global i64, align 8
@.str.37 = private unnamed_addr constant [50 x i8] c"unable to advance current block iterator location\00", align 1
@__func__.H5HF__hdr_inc_iter = private unnamed_addr constant [19 x i8] c"H5HF__hdr_inc_iter\00", align 1

; Function Attrs: nounwind uwtable
define i32 @H5HF__hdr_inc_iter(ptr noundef %0, i64 noundef %1, i32 noundef %2) #0 {
  %4 = alloca ptr, align 8
  %5 = alloca i64, align 8
  %6 = alloca i32, align 4
  %7 = alloca i32, align 4
  %8 = alloca i8, align 1
  store ptr %0, ptr %4, align 8, !tbaa !8
  store i64 %1, ptr %5, align 8, !tbaa !14
  store i32 %2, ptr %6, align 4, !tbaa !38
  call void @llvm.lifetime.start.p0(i64 4, ptr %7) #7
  store i32 0, ptr %7, align 4, !tbaa !38
  call void @llvm.lifetime.start.p0(i64 1, ptr %8) #7
  store i8 0, ptr %8, align 1, !tbaa !10
  %9 = load i8, ptr @H5HF_init_g, align 1, !tbaa !10, !range !12, !noundef !13
  %10 = trunc i8 %9 to i1
  br i1 %10, label %15, label %11

11:                                               ; preds = %3
  %12 = load i8, ptr @H5_libterm_g, align 1, !tbaa !10, !range !12, !noundef !13
  %13 = trunc i8 %12 to i1
  %14 = xor i1 %13, true
  br label %15

15:                                               ; preds = %11, %3
  %16 = phi i1 [ true, %3 ], [ %14, %11 ]
  %17 = xor i1 %16, true
  %18 = xor i1 %17, true
  %19 = zext i1 %18 to i32
  %20 = sext i32 %19 to i64
  %21 = call i64 @llvm.expect.i64(i64 %20, i64 1)
  %22 = icmp ne i64 %21, 0
  br i1 %22, label %23, label %63

23:                                               ; preds = %15
  %24 = load ptr, ptr %4, align 8, !tbaa !8
  %25 = getelementptr inbounds nuw %struct.H5HF_hdr_t, ptr %24, i32 0, i32 36
  %26 = getelementptr inbounds nuw %struct.H5HF_block_iter_t, ptr %25, i32 0, i32 1
  %27 = load ptr, ptr %26, align 8, !tbaa !81
  %28 = icmp ne ptr %27, null
  br i1 %28, label %29, label %56

29:                                               ; preds = %23
  %30 = load ptr, ptr %4, align 8, !tbaa !8
  %31 = load ptr, ptr %4, align 8, !tbaa !8
  %32 = getelementptr inbounds nuw %struct.H5HF_hdr_t, ptr %31, i32 0, i32 36
  %33 = load i32, ptr %6, align 4, !tbaa !38
  %34 = call i32 @H5HF__man_iter_next(ptr noundef %30, ptr noundef %32, i32 noundef %33)
  %35 = icmp slt i32 %34, 0
  br i1 %35, label %36, label %55

36:                                               ; preds = %29
  br label %37

37:                                               ; preds = %36
  br label %38

38:                                               ; preds = %37
  br label %39

39:                                               ; preds = %38
  %40 = load i64, ptr @H5E_HEAP_g, align 8, !tbaa !14
  %41 = load i64, ptr @H5E_CANTNEXT_g, align 8, !tbaa !14
  %42 = call i32 (ptr, ptr, i32, i64, i64, ptr, ...) @H5E_printf_stack(ptr noundef @.str, ptr noundef @__func__.H5HF__hdr_inc_iter, i32 noundef 1094, i64 noundef %40, i64 noundef %41, ptr noundef @.str.37)
  br label %43

43:                                               ; preds = %39
  br label %44

44:                                               ; preds = %43
  store i8 1, ptr %8, align 1, !tbaa !10
  %45 = load i8, ptr %8, align 1, !tbaa !10, !range !12, !noundef !13
  %46 = trunc i8 %45 to i1
  %47 = zext i1 %46 to i8
  store i8 %47, ptr %8, align 1, !tbaa !10
  br label %48

48:                                               ; preds = %44
  br label %49

49:                                               ; preds = %48
  br label %50

50:                                               ; preds = %49
  store i32 -1, ptr %7, align 4, !tbaa !38
  br label %62

51:                                               ; No predecessors!
  br label %52

52:                                               ; preds = %51
  br label %53

53:                                               ; preds = %52
  br label %54

54:                                               ; preds = %53
  br label %55

55:                                               ; preds = %54, %29
  br label %56

56:                                               ; preds = %55, %23
  %57 = load i64, ptr %5, align 8, !tbaa !14
  %58 = load ptr, ptr %4, align 8, !tbaa !8
  %59 = getelementptr inbounds nuw %struct.H5HF_hdr_t, ptr %58, i32 0, i32 18
  %60 = load i64, ptr %59, align 8, !tbaa !80
  %61 = add i64 %60, %57
  store i64 %61, ptr %59, align 8, !tbaa !80
  br label %62

62:                                               ; preds = %56, %50
  br label %63

63:                                               ; preds = %62, %15
  %64 = load i32, ptr %7, align 4, !tbaa !38
  call void @llvm.lifetime.end.p0(i64 1, ptr %8) #7
  call void @llvm.lifetime.end.p0(i64 4, ptr %7) #7
  ret i32 %64
}

; Function Attrs: nounwind uwtable
define i32 @H5HF__hdr_skip_blocks(ptr noundef %0, ptr noundef %1, i32 noundef %2, i32 noundef %3) #0 {
  %5 = alloca ptr, align 8
  %6 = alloca ptr, align 8
  %7 = alloca i32, align 4
  %8 = alloca i32, align 4
  %9 = alloca i32, align 4
  %10 = alloca i32, align 4
  %11 = alloca i64, align 8
  %12 = alloca i32, align 4
  %13 = alloca i8, align 1
  store ptr %0, ptr %5, align 8, !tbaa !8
  store ptr %1, ptr %6, align 8, !tbaa !79
  store i32 %2, ptr %7, align 4, !tbaa !38
  store i32 %3, ptr %8, align 4, !tbaa !38
  call void @llvm.lifetime.start.p0(i64 4, ptr %9) #7
  call void @llvm.lifetime.start.p0(i64 4, ptr %10) #7
  call void @llvm.lifetime.start.p0(i64 8, ptr %11) #7
  call void @llvm.lifetime.start.p0(i64 4, ptr %12) #7
  store i32 0, ptr %12, align 4, !tbaa !38
  call void @llvm.lifetime.start.p0(i64 1, ptr %13) #7
  store i8 0, ptr %13, align 1, !tbaa !10
  %14 = load i8, ptr @H5HF_init_g, align 1, !tbaa !10, !range !12, !noundef !13
  %15 = trunc i8 %14 to i1
  br i1 %15, label %20, label %16

16:                                               ; preds = %4
  %17 = load i8, ptr @H5_libterm_g, align 1, !tbaa !10, !range !12, !noundef !13
  %18 = trunc i8 %17 to i1
  %19 = xor i1 %18, true
  br label %20

20:                                               ; preds = %16, %4
  %21 = phi i1 [ true, %4 ], [ %19, %16 ]
  %22 = xor i1 %21, true
  %23 = xor i1 %22, true
  %24 = zext i1 %23 to i32
  %25 = sext i32 %24 to i64
  %26 = call i64 @llvm.expect.i64(i64 %25, i64 1)
  %27 = icmp ne i64 %26, 0
  br i1 %27, label %28, label %101

28:                                               ; preds = %20
  %29 = load i32, ptr %7, align 4, !tbaa !38
  %30 = load ptr, ptr %5, align 8, !tbaa !8
  %31 = getelementptr inbounds nuw %struct.H5HF_hdr_t, ptr %30, i32 0, i32 7
  %32 = getelementptr inbounds nuw %struct.H5HF_dtable_t, ptr %31, i32 0, i32 0
  %33 = getelementptr inbounds nuw %struct.H5HF_dtable_cparam_t, ptr %32, i32 0, i32 0
  %34 = load i32, ptr %33, align 8, !tbaa !52
  %35 = udiv i32 %29, %34
  store i32 %35, ptr %9, align 4, !tbaa !38
  %36 = load i32, ptr %7, align 4, !tbaa !38
  %37 = load ptr, ptr %5, align 8, !tbaa !8
  %38 = getelementptr inbounds nuw %struct.H5HF_hdr_t, ptr %37, i32 0, i32 7
  %39 = getelementptr inbounds nuw %struct.H5HF_dtable_t, ptr %38, i32 0, i32 0
  %40 = getelementptr inbounds nuw %struct.H5HF_dtable_cparam_t, ptr %39, i32 0, i32 0
  %41 = load i32, ptr %40, align 8, !tbaa !52
  %42 = urem i32 %36, %41
  store i32 %42, ptr %10, align 4, !tbaa !38
  %43 = load ptr, ptr %5, align 8, !tbaa !8
  %44 = getelementptr inbounds nuw %struct.H5HF_hdr_t, ptr %43, i32 0, i32 7
  %45 = load i32, ptr %9, align 4, !tbaa !38
  %46 = load i32, ptr %10, align 4, !tbaa !38
  %47 = load i32, ptr %8, align 4, !tbaa !38
  %48 = call i64 @H5HF__dtable_span_size(ptr noundef %44, i32 noundef %45, i32 noundef %46, i32 noundef %47)
  store i64 %48, ptr %11, align 8, !tbaa !14
  %49 = load ptr, ptr %5, align 8, !tbaa !8
  %50 = load i64, ptr %11, align 8, !tbaa !14
  %51 = load i32, ptr %8, align 4, !tbaa !38
  %52 = call i32 @H5HF__hdr_inc_iter(ptr noundef %49, i64 noundef %50, i32 noundef %51)
  %53 = icmp slt i32 %52, 0
  br i1 %53, label %54, label %73

54:                                               ; preds = %28
  br label %55

55:                                               ; preds = %54
  br label %56

56:                                               ; preds = %55
  br label %57

57:                                               ; preds = %56
  %58 = load i64, ptr @H5E_HEAP_g, align 8, !tbaa !14
  %59 = load i64, ptr @H5E_CANTRELEASE_g, align 8, !tbaa !14
  %60 = call i32 (ptr, ptr, i32, i64, i64, ptr, ...) @H5E_printf_stack(ptr noundef @.str, ptr noundef @__func__.H5HF__hdr_skip_blocks, i32 noundef 864, i64 noundef %58, i64 noundef %59, ptr noundef @.str.30)
  br label %61

61:                                               ; preds = %57
  br label %62

62:                                               ; preds = %61
  store i8 1, ptr %13, align 1, !tbaa !10
  %63 = load i8, ptr %13, align 1, !tbaa !10, !range !12, !noundef !13
  %64 = trunc i8 %63 to i1
  %65 = zext i1 %64 to i8
  store i8 %65, ptr %13, align 1, !tbaa !10
  br label %66

66:                                               ; preds = %62
  br label %67

67:                                               ; preds = %66
  br label %68

68:                                               ; preds = %67
  store i32 -1, ptr %12, align 4, !tbaa !38
  br label %100

69:                                               ; No predecessors!
  br label %70

70:                                               ; preds = %69
  br label %71

71:                                               ; preds = %70
  br label %72

72:                                               ; preds = %71
  br label %73

73:                                               ; preds = %72, %28
  %74 = load ptr, ptr %5, align 8, !tbaa !8
  %75 = load ptr, ptr %6, align 8, !tbaa !79
  %76 = load i32, ptr %7, align 4, !tbaa !38
  %77 = load i32, ptr %8, align 4, !tbaa !38
  %78 = call i32 @H5HF__sect_indirect_add(ptr noundef %74, ptr noundef %75, i32 noundef %76, i32 noundef %77)
  %79 = icmp slt i32 %78, 0
  br i1 %79, label %80, label %99

80:                                               ; preds = %73
  br label %81

81:                                               ; preds = %80
  br label %82

82:                                               ; preds = %81
  br label %83

83:                                               ; preds = %82
  %84 = load i64, ptr @H5E_HEAP_g, align 8, !tbaa !14
  %85 = load i64, ptr @H5E_CANTINIT_g, align 8, !tbaa !14
  %86 = call i32 (ptr, ptr, i32, i64, i64, ptr, ...) @H5E_printf_stack(ptr noundef @.str, ptr noundef @__func__.H5HF__hdr_skip_blocks, i32 noundef 869, i64 noundef %84, i64 noundef %85, ptr noundef @.str.31)
  br label %87

87:                                               ; preds = %83
  br label %88

88:                                               ; preds = %87
  store i8 1, ptr %13, align 1, !tbaa !10
  %89 = load i8, ptr %13, align 1, !tbaa !10, !range !12, !noundef !13
  %90 = trunc i8 %89 to i1
  %91 = zext i1 %90 to i8
  store i8 %91, ptr %13, align 1, !tbaa !10
  br label %92

92:                                               ; preds = %88
  br label %93

93:                                               ; preds = %92
  br label %94

94:                                               ; preds = %93
  store i32 -1, ptr %12, align 4, !tbaa !38
  br label %100

95:                                               ; No predecessors!
  br label %96

96:                                               ; preds = %95
  br label %97

97:                                               ; preds = %96
  br label %98

98:                                               ; preds = %97
  br label %99

99:                                               ; preds = %98, %73
  br label %100

100:                                              ; preds = %99, %94, %68
  br label %101

101:                                              ; preds = %100, %20
  %102 = load i32, ptr %12, align 4, !tbaa !38
  call void @llvm.lifetime.end.p0(i64 1, ptr %13) #7
  call void @llvm.lifetime.end.p0(i64 4, ptr %12) #7
  call void @llvm.lifetime.end.p0(i64 8, ptr %11) #7
  call void @llvm.lifetime.end.p0(i64 4, ptr %10) #7
  call void @llvm.lifetime.end.p0(i64 4, ptr %9) #7
  ret i32 %102
}