; Function Attrs: nounwind uwtable
define range(i32 -1, 1) i32 @H5HF__hdr_skip_blocks(ptr noundef %0, ptr noundef %1, i32 noundef %2, i32 noundef %3) local_unnamed_addr #0 {
  %5 = load i8, ptr @H5HF_init_g, align 1, !tbaa !3, !range !7, !noundef !8
  %6 = trunc nuw i8 %5 to i1
  %7 = load i8, ptr @H5_libterm_g, align 1, !range !7
  %8 = trunc nuw i8 %7 to i1
  %9 = xor i1 %8, true
  %10 = select i1 %6, i1 true, i1 %9
  br i1 %10, label %11, label %48, !prof !9

11:                                               ; preds = %4
  %12 = getelementptr inbounds nuw i8, ptr %0, i64 264
  %13 = load i32, ptr %12, align 8, !tbaa !48
  %14 = udiv i32 %2, %13
  %15 = urem i32 %2, %13
  %16 = tail call i64 @H5HF__dtable_span_size(ptr noundef nonnull %12, i32 noundef %14, i32 noundef %15, i32 noundef %3) #7
  %17 = load i8, ptr @H5HF_init_g, align 1, !tbaa !3, !range !7, !noundef !8
  %18 = trunc nuw i8 %17 to i1
  %19 = load i8, ptr @H5_libterm_g, align 1, !range !7
  %20 = trunc nuw i8 %19 to i1
  %21 = xor i1 %20, true
  %22 = select i1 %18, i1 true, i1 %21
  br i1 %22, label %23, label %41, !prof !9

23:                                               ; preds = %11
  %24 = getelementptr inbounds nuw i8, ptr %0, i64 656
  %25 = load ptr, ptr %24, align 8, !tbaa !76
  %.not.i = icmp eq ptr %25, null
  br i1 %.not.i, label %30, label %26

26:                                               ; preds = %23
  %27 = getelementptr inbounds nuw i8, ptr %0, i64 648
  %28 = tail call i32 @H5HF__man_iter_next(ptr noundef nonnull %0, ptr noundef nonnull %27, i32 noundef %3) #7
  %29 = icmp slt i32 %28, 0
  br i1 %29, label %34, label %30

30:                                               ; preds = %26, %23
  %31 = getelementptr inbounds nuw i8, ptr %0, i64 520
  %32 = load i64, ptr %31, align 8, !tbaa !75
  %33 = add i64 %32, %16
  store i64 %33, ptr %31, align 8, !tbaa !75
  br label %41

34:                                               ; preds = %26
  %35 = load i64, ptr @H5E_HEAP_g, align 8, !tbaa !10
  %36 = load i64, ptr @H5E_CANTNEXT_g, align 8, !tbaa !10
  %37 = tail call i32 (ptr, ptr, i32, i64, i64, ptr, ...) @H5E_printf_stack(ptr noundef nonnull @.str, ptr noundef nonnull @__func__.H5HF__hdr_inc_iter, i32 noundef 1094, i64 noundef %35, i64 noundef %36, ptr noundef nonnull @.str.37) #7
  %38 = load i64, ptr @H5E_HEAP_g, align 8, !tbaa !10
  %39 = load i64, ptr @H5E_CANTRELEASE_g, align 8, !tbaa !10
  %40 = tail call i32 (ptr, ptr, i32, i64, i64, ptr, ...) @H5E_printf_stack(ptr noundef nonnull @.str, ptr noundef nonnull @__func__.H5HF__hdr_skip_blocks, i32 noundef 864, i64 noundef %38, i64 noundef %39, ptr noundef nonnull @.str.30) #7
  br label %48

41:                                               ; preds = %30, %11
  %42 = tail call i32 @H5HF__sect_indirect_add(ptr noundef nonnull %0, ptr noundef %1, i32 noundef %2, i32 noundef %3) #7
  %43 = icmp slt i32 %42, 0
  br i1 %43, label %44, label %48

44:                                               ; preds = %41
  %45 = load i64, ptr @H5E_HEAP_g, align 8, !tbaa !10
  %46 = load i64, ptr @H5E_CANTINIT_g, align 8, !tbaa !10
  %47 = tail call i32 (ptr, ptr, i32, i64, i64, ptr, ...) @H5E_printf_stack(ptr noundef nonnull @.str, ptr noundef nonnull @__func__.H5HF__hdr_skip_blocks, i32 noundef 869, i64 noundef %45, i64 noundef %46, ptr noundef nonnull @.str.31) #7
  br label %48

48:                                               ; preds = %34, %44, %41, %4
  %.0 = phi i32 [ -1, %34 ], [ -1, %44 ], [ 0, %41 ], [ 0, %4 ]
  ret i32 %.0
}